Certificate:
    Data:
        Version: 3 (0x2)
        Serial Number:
            7b:2f:be:7b:15:5e:3b:47:6d:57:60:79:b7:be:33:21
    Signature Algorithm: sha256WithRSAEncryption
        Issuer: CN=ChangeMe
        Validity
            Not Before: Dec 22 08:24:28 2019 GMT
            Not After : Dec  6 08:24:28 2022 GMT
        Subject: CN=client1
        Subject Public Key Info:
            Public Key Algorithm: rsaEncryption
                Public-Key: (2048 bit)
                Modulus:
                    00:af:af:f7:3d:3f:db:e2:d3:e6:93:9d:d9:75:34:
                    e7:b7:6b:da:a9:e4:ad:50:6f:d4:63:28:fa:e3:a3:
                    55:6e:7b:e1:ed:34:65:9b:80:3a:51:3e:fe:4c:7d:
                    51:f2:dd:28:df:6f:de:78:8f:cc:f8:31:70:26:7e:
                    07:3e:09:6c:ab:20:48:a6:cb:bb:40:72:e2:3c:e2:
                    30:db:e3:44:d0:08:86:31:f4:20:59:c5:8c:83:21:
                    b1:67:04:4b:4b:aa:59:97:76:41:45:68:52:64:10:
                    9a:63:2f:04:ad:d4:1c:e8:a1:3d:6d:d0:7d:d8:07:
                    1d:68:46:fe:89:45:5b:1a:20:17:9e:bf:b4:6f:bf:
                    f9:3e:a5:ca:af:ac:d0:44:78:72:64:fe:f5:02:63:
                    64:f2:1e:d5:e8:5c:48:08:5b:46:45:9a:20:67:15:
                    75:bd:b9:07:4c:36:7a:fc:08:52:09:4a:5f:68:c2:
                    a2:9f:40:18:ac:63:4f:2c:fd:8d:33:38:0e:31:98:
                    de:60:c4:92:50:bf:ff:56:0a:cf:55:11:39:1b:34:
                    86:6e:16:ab:6f:15:4b:f5:39:4a:c1:49:68:64:19:
                    bd:85:37:b8:c6:67:c1:82:69:49:f5:c8:bc:b2:a3:
                    f5:bd:be:56:e6:9d:fa:6e:70:20:0f:df:3d:a2:c5:
                    1f:c5
                Exponent: 65537 (0x10001)
        X509v3 extensions:
            X509v3 Basic Constraints: 
                CA:FALSE
            X509v3 Subject Key Identifier: 
                72:0E:EB:20:CB:FB:E6:0D:BE:57:41:89:12:0F:60:15:DB:16:17:84
            X509v3 Authority Key Identifier: 
                keyid:F0:96:67:0A:B3:4F:FC:1A:20:A5:34:97:B8:CE:71:AB:E0:AC:9E:C2
                DirName:/CN=ChangeMe
                serial:D4:5B:28:56:0D:DB:18:BF

            X509v3 Extended Key Usage: 
                TLS Web Client Authentication
            X509v3 Key Usage: 
                Digital Signature
    Signature Algorithm: sha256WithRSAEncryption
         80:e5:4c:19:b5:7d:96:56:bb:88:42:48:17:2b:22:45:d4:7b:
         a2:7a:47:7f:83:63:e3:96:6f:48:96:2c:bc:0e:a5:7b:c0:e2:
         8f:00:c4:61:2f:5d:04:d3:63:36:c5:6b:9f:cb:12:07:8d:65:
         fa:71:02:1d:d4:e0:28:16:21:6f:2e:26:5c:99:1c:ca:93:85:
         d4:2c:47:08:d3:b4:7a:ef:0d:e1:5c:32:c6:e4:17:78:a6:57:
         da:f2:48:9b:80:d2:b0:1e:a5:8a:b2:98:04:c8:e0:13:49:7e:
         0a:85:12:f9:f3:43:dd:c1:2f:30:49:9f:b6:7f:ea:f4:db:bd:
         ba:ae:75:97:d8:43:2d:18:96:28:b5:f2:bb:8b:4d:a5:6a:3b:
         67:67:bb:53:9d:39:6c:d7:7a:88:a8:fa:cb:0f:df:ca:bf:50:
         66:67:71:31:b4:81:e7:6d:dc:83:ab:f2:14:fe:d3:01:ed:18:
         17:09:fc:19:61:85:4a:4c:92:91:43:1c:69:9a:b5:51:f3:d8:
         b3:bf:56:0a:7d:9f:52:eb:77:0a:7c:87:f7:12:b0:20:8f:93:
         4b:d7:96:d3:96:a1:92:db:84:3c:e3:14:f5:08:e3:1a:e7:3b:
         4d:28:11:bc:ce:9c:72:0c:5e:67:f0:04:d7:82:cf:c4:28:7d:
         25:3d:47:a7
-----BEGIN CERTIFICATE-----
MIIDRDCCAiygAwIBAgIQey++exVeO0dtV2B5t74zITANBgkqhkiG9w0BAQsFADAT
MREwDwYDVQQDDAhDaGFuZ2VNZTAeFw0xOTEyMjIwODI0MjhaFw0yMjEyMDYwODI0
MjhaMBIxEDAOBgNVBAMMB2NsaWVudDEwggEiMA0GCSqGSIb3DQEBAQUAA4IBDwAw
ggEKAoIBAQCvr/c9P9vi0+aTndl1NOe3a9qp5K1Qb9RjKPrjo1Vue+HtNGWbgDpR
Pv5MfVHy3Sjfb954j8z4MXAmfgc+CWyrIEimy7tAcuI84jDb40TQCIYx9CBZxYyD
IbFnBEtLqlmXdkFFaFJkEJpjLwSt1BzooT1t0H3YBx1oRv6JRVsaIBeev7Rvv/k+
pcqvrNBEeHJk/vUCY2TyHtXoXEgIW0ZFmiBnFXW9uQdMNnr8CFIJSl9owqKfQBis
Y08s/Y0zOA4xmN5gxJJQv/9WCs9VETkbNIZuFqtvFUv1OUrBSWhkGb2FN7jGZ8GC
aUn1yLyyo/W9vlbmnfpucCAP3z2ixR/FAgMBAAGjgZQwgZEwCQYDVR0TBAIwADAd
BgNVHQ4EFgQUcg7rIMv75g2+V0GJEg9gFdsWF4QwQwYDVR0jBDwwOoAU8JZnCrNP
/BogpTSXuM5xq+CsnsKhF6QVMBMxETAPBgNVBAMMCENoYW5nZU1lggkA1FsoVg3b
GL8wEwYDVR0lBAwwCgYIKwYBBQUHAwIwCwYDVR0PBAQDAgeAMA0GCSqGSIb3DQEB
CwUAA4IBAQCA5UwZtX2WVruIQkgXKyJF1Huiekd/g2Pjlm9Iliy8DqV7wOKPAMRh
L10E02M2xWufyxIHjWX6cQId1OAoFiFvLiZcmRzKk4XULEcI07R67w3hXDLG5Bd4
plfa8kibgNKwHqWKspgEyOATSX4KhRL580PdwS8wSZ+2f+r02726rnWX2EMtGJYo
tfK7i02lajtnZ7tTnTls13qIqPrLD9/Kv1BmZ3ExtIHnbdyDq/IU/tMB7RgXCfwZ
YYVKTJKRQxxpmrVR89izv1YKfZ9S63cKfIf3ErAgj5NL15bTlqGS24Q84xT1COMa
5ztNKBG8zpxyDF5n8ATXgs/EKH0lPUen
-----END CERTIFICATE-----
